; Function Attrs: nounwind uwtable
define internal fastcc void @_ftp_state(ptr noundef %0, i8 noundef zeroext %1) unnamed_addr #0 {
  %3 = getelementptr inbounds nuw i8, ptr %0, i64 24
  %4 = load ptr, ptr %3, align 8, !tbaa !105
  %5 = getelementptr inbounds nuw i8, ptr %4, i64 1358
  %6 = load i8, ptr %5, align 2, !tbaa !136
  %7 = icmp ne i8 %6, %1
  %8 = icmp ne ptr %0, null
  %or.cond4 = and i1 %8, %7
  br i1 %or.cond4, label %9, label %30

9:                                                ; preds = %2
  %10 = getelementptr inbounds nuw i8, ptr %0, i64 2658
  %11 = load i64, ptr %10, align 2
  %12 = and i64 %11, 2147483648
  %.not = icmp eq i64 %12, 0
  br i1 %.not, label %30, label %13

13:                                               ; preds = %9
  %14 = getelementptr inbounds nuw i8, ptr %0, i64 4864
  %15 = load ptr, ptr %14, align 8, !tbaa !102
  %.not20 = icmp eq ptr %15, null
  br i1 %.not20, label %22, label %16

16:                                               ; preds = %13
  %17 = getelementptr inbounds nuw i8, ptr %15, i64 8
  %18 = load i32, ptr %17, align 8, !tbaa !103
  %19 = icmp sgt i32 %18, 0
  %20 = load i32, ptr getelementptr inbounds nuw (i8, ptr @Curl_trc_feat_ftp, i64 8), align 8
  %21 = icmp sgt i32 %20, 0
  %or.cond = select i1 %19, i1 %21, i1 false
  br i1 %or.cond, label %23, label %30

22:                                               ; preds = %13
  %.old = load i32, ptr getelementptr inbounds nuw (i8, ptr @Curl_trc_feat_ftp, i64 8), align 8, !tbaa !103
  %.old1 = icmp sgt i32 %.old, 0
  br i1 %.old1, label %23, label %30

23:                                               ; preds = %22, %16
  %24 = zext i8 %6 to i64
  %25 = getelementptr inbounds nuw [35 x ptr], ptr @ftp_state_names, i64 0, i64 %24
  %26 = load ptr, ptr %25, align 8, !tbaa !7
  %27 = zext i8 %1 to i64
  %28 = getelementptr inbounds nuw [35 x ptr], ptr @ftp_state_names, i64 0, i64 %27
  %29 = load ptr, ptr %28, align 8, !tbaa !7
  tail call void (ptr, ptr, ...) @Curl_trc_ftp(ptr noundef nonnull %0, ptr noundef nonnull @.str.7, ptr noundef %26, ptr noundef %29) #10
  br label %30

30:                                               ; preds = %9, %16, %22, %23, %2
  store i8 %1, ptr %5, align 2, !tbaa !136
  ret void
}